; ModuleID = '10/1302.c'
source_filename = "10/1302.c"
target datalayout = "e-m:e-p270:32:32-p271:32:32-p272:64:64-i64:64-f80:128-n8:16:32:64-S128"
target triple = "x86_64-pc-linux-gnu"

@f = dso_local global [100 x i32] zeroinitializer, align 16
@longest_index = dso_local global i32 -1, align 4
@longest_f = dso_local global i32 -1, align 4
@.str = private unnamed_addr constant [3 x i8] c"%d\00", align 1
@n = common dso_local global i32 0, align 4
@a = common dso_local global [100 x i32] zeroinitializer, align 16
@.str.1 = private unnamed_addr constant [4 x i8] c"%d\0A\00", align 1

; Function Attrs: noinline nounwind uwtable
define dso_local void @main() #0 {
  %1 = alloca i32, align 4
  %2 = alloca i32, align 4
  %3 = alloca i32, align 4
  %4 = alloca i32, align 4
  %5 = call i32 (i8*, ...) @__isoc99_scanf(i8* getelementptr inbounds ([3 x i8], [3 x i8]* @.str, i64 0, i64 0), i32* @n)
  store i32 0, i32* %1, align 4
  br label %6

6:                                                ; preds = %15, %0
  %7 = load i32, i32* %1, align 4
  %8 = load i32, i32* @n, align 4
  %9 = icmp slt i32 %7, %8
  br i1 %9, label %10, label %18

10:                                               ; preds = %6
  %11 = load i32, i32* %1, align 4
  %12 = sext i32 %11 to i64
  %13 = getelementptr inbounds [100 x i32], [100 x i32]* @a, i64 0, i64 %12
  %14 = call i32 (i8*, ...) @__isoc99_scanf(i8* getelementptr inbounds ([3 x i8], [3 x i8]* @.str, i64 0, i64 0), i32* %13)
  br label %15

15:                                               ; preds = %10
  %16 = load i32, i32* %1, align 4
  %17 = add nsw i32 %16, 1
  store i32 %17, i32* %1, align 4
  br label %6

18:                                               ; preds = %6
  store i32 0, i32* %3, align 4
  br label %19

19:                                               ; preds = %27, %18
  %20 = load i32, i32* %3, align 4
  %21 = load i32, i32* @n, align 4
  %22 = icmp slt i32 %20, %21
  br i1 %22, label %23, label %30

23:                                               ; preds = %19
  %24 = load i32, i32* %3, align 4
  %25 = sext i32 %24 to i64
  %26 = getelementptr inbounds [100 x i32], [100 x i32]* @f, i64 0, i64 %25
  store i32 1, i32* %26, align 4
  br label %27

27:                                               ; preds = %23
  %28 = load i32, i32* %3, align 4
  %29 = add nsw i32 %28, 1
  store i32 %29, i32* %3, align 4
  br label %19

30:                                               ; preds = %19
  %31 = load i32, i32* @n, align 4
  %32 = sub nsw i32 %31, 2
  store i32 %32, i32* %3, align 4
  br label %33

33:                                               ; preds = %91, %30
  %34 = load i32, i32* %3, align 4
  %35 = icmp sge i32 %34, 0
  br i1 %35, label %36, label %94

36:                                               ; preds = %33
  %37 = load i32, i32* %3, align 4
  %38 = add nsw i32 %37, 1
  store i32 %38, i32* %4, align 4
  br label %39

39:                                               ; preds = %87, %36
  %40 = load i32, i32* %4, align 4
  %41 = load i32, i32* @n, align 4
  %42 = icmp slt i32 %40, %41
  br i1 %42, label %43, label %90

43:                                               ; preds = %39
  %44 = load i32, i32* %3, align 4
  %45 = sext i32 %44 to i64
  %46 = getelementptr inbounds [100 x i32], [100 x i32]* @f, i64 0, i64 %45
  %47 = load i32, i32* %46, align 4
  %48 = load i32, i32* %4, align 4
  %49 = sext i32 %48 to i64
  %50 = getelementptr inbounds [100 x i32], [100 x i32]* @f, i64 0, i64 %49
  %51 = load i32, i32* %50, align 4
  %52 = add nsw i32 %51, 1
  %53 = icmp slt i32 %47, %52
  br i1 %53, label %54, label %86

54:                                               ; preds = %43
  %55 = load i32, i32* %3, align 4
  %56 = sext i32 %55 to i64
  %57 = getelementptr inbounds [100 x i32], [100 x i32]* @a, i64 0, i64 %56
  %58 = load i32, i32* %57, align 4
  %59 = load i32, i32* %4, align 4
  %60 = sext i32 %59 to i64
  %61 = getelementptr inbounds [100 x i32], [100 x i32]* @a, i64 0, i64 %60
  %62 = load i32, i32* %61, align 4
  %63 = icmp sge i32 %58, %62
  br i1 %63, label %64, label %86

64:                                               ; preds = %54
  %65 = load i32, i32* %4, align 4
  %66 = sext i32 %65 to i64
  %67 = getelementptr inbounds [100 x i32], [100 x i32]* @f, i64 0, i64 %66
  %68 = load i32, i32* %67, align 4
  %69 = add nsw i32 %68, 1
  %70 = load i32, i32* %3, align 4
  %71 = sext i32 %70 to i64
  %72 = getelementptr inbounds [100 x i32], [100 x i32]* @f, i64 0, i64 %71
  store i32 %69, i32* %72, align 4
  %73 = load i32, i32* @longest_f, align 4
  %74 = load i32, i32* %3, align 4
  %75 = sext i32 %74 to i64
  %76 = getelementptr inbounds [100 x i32], [100 x i32]* @f, i64 0, i64 %75
  %77 = load i32, i32* %76, align 4
  %78 = icmp slt i32 %73, %77
  br i1 %78, label %79, label %85

79:                                               ; preds = %64
  %80 = load i32, i32* %3, align 4
  %81 = sext i32 %80 to i64
  %82 = getelementptr inbounds [100 x i32], [100 x i32]* @f, i64 0, i64 %81
  %83 = load i32, i32* %82, align 4
  store i32 %83, i32* @longest_f, align 4
  %84 = load i32, i32* %3, align 4
  store i32 %84, i32* @longest_index, align 4
  br label %85

85:                                               ; preds = %79, %64
  br label %86

86:                                               ; preds = %85, %54, %43
  br label %87

87:                                               ; preds = %86
  %88 = load i32, i32* %4, align 4
  %89 = add nsw i32 %88, 1
  store i32 %89, i32* %4, align 4
  br label %39

90:                                               ; preds = %39
  br label %91

91:                                               ; preds = %90
  %92 = load i32, i32* %3, align 4
  %93 = add nsw i32 %92, -1
  store i32 %93, i32* %3, align 4
  br label %33

94:                                               ; preds = %33
  %95 = load i32, i32* @longest_f, align 4
  %96 = call i32 (i8*, ...) @printf(i8* getelementptr inbounds ([4 x i8], [4 x i8]* @.str.1, i64 0, i64 0), i32 %95)
  ret void
}

declare dso_local i32 @__isoc99_scanf(i8*, ...) #1

declare dso_local i32 @printf(i8*, ...) #1


!llvm.module.flags = !{!0}
!llvm.ident = !{!1}

!0 = !{i32 1, !"wchar_size", i32 4}
!1 = !{!"clang version 10.0.0-4ubuntu1 "}
